target datalayout = "e-m:e-p270:32:32-p271:32:32-p272:64:64-i64:64-i128:128-f80:128-n8:16:32:64-S128"
target triple = "x86_64-pc-linux-gnu"

%struct.LodePNGColorMode = type { i32, i32, ptr, i64, i32, i32, i32, i32 }

; Function Attrs: mustprogress nounwind uwtable
define internal noundef i32 @_ZL19getNumColorChannels16LodePNGColorType(i32 noundef %0) #3 {
  %2 = alloca i32, align 4
  %3 = alloca i32, align 4
  store i32 %0, ptr %3, align 4, !tbaa !113
  %4 = load i32, ptr %3, align 4, !tbaa !113
  switch i32 %4, label %11 [
    i32 0, label %5
    i32 2, label %6
    i32 3, label %7
    i32 4, label %8
    i32 6, label %9
    i32 255, label %10
  ]

5:                                                ; preds = %1
  store i32 1, ptr %2, align 4
  br label %12

6:                                                ; preds = %1
  store i32 3, ptr %2, align 4
  br label %12

7:                                                ; preds = %1
  store i32 1, ptr %2, align 4
  br label %12

8:                                                ; preds = %1
  store i32 2, ptr %2, align 4
  br label %12

9:                                                ; preds = %1
  store i32 4, ptr %2, align 4
  br label %12

10:                                               ; preds = %1
  store i32 0, ptr %2, align 4
  br label %12

11:                                               ; preds = %1
  store i32 0, ptr %2, align 4
  br label %12

12:                                               ; preds = %11, %10, %9, %8, %7, %6, %5
  %13 = load i32, ptr %2, align 4
  ret i32 %13
}

; Function Attrs: mustprogress uwtable
define noundef i32 @_Z20lodepng_get_channelsPK16LodePNGColorMode(ptr noundef %0) #0 {
  %2 = alloca ptr, align 8
  store ptr %0, ptr %2, align 8, !tbaa !100
  %3 = load ptr, ptr %2, align 8, !tbaa !100
  %4 = getelementptr inbounds nuw %struct.LodePNGColorMode, ptr %3, i32 0, i32 0
  %5 = load i32, ptr %4, align 8, !tbaa !108
  %6 = call noundef i32 @_ZL19getNumColorChannels16LodePNGColorType(i32 noundef %5)
  ret i32 %6
}