; Function Attrs: mustprogress nofree norecurse nosync nounwind willreturn memory(argmem: read) uwtable
define noundef range(i32 0, 5) i32 @_Z20lodepng_get_channelsPK16LodePNGColorMode(ptr noundef readonly captures(none) %0) local_unnamed_addr #7 {
  %2 = load i32, ptr %0, align 8, !tbaa !183
  %3 = icmp ult i32 %2, 7
  br i1 %3, label %switch.lookup, label %_ZL19getNumColorChannels16LodePNGColorType.exit

switch.lookup:                                    ; preds = %1
  %4 = zext nneg i32 %2 to i64
  %switch.gep = getelementptr inbounds nuw [7 x i32], ptr @switch.table._ZL6filterPhPKhjjPK16LodePNGColorModePK22LodePNGEncoderSettings, i64 0, i64 %4
  %switch.load = load i32, ptr %switch.gep, align 4
  br label %_ZL19getNumColorChannels16LodePNGColorType.exit

_ZL19getNumColorChannels16LodePNGColorType.exit:  ; preds = %1, %switch.lookup
  %.0.i = phi i32 [ %switch.load, %switch.lookup ], [ 0, %1 ]
  ret i32 %.0.i
}